; Function Attrs: nofree norecurse nosync nounwind memory(write, argmem: readwrite, inaccessiblemem: none) uwtable
define noundef nonnull ptr @Dsc_ComputeMatches(ptr noundef readonly captures(none) %0) local_unnamed_addr #11 {
  %2 = alloca [16 x i32], align 16
  call void @llvm.lifetime.start.p0(i64 64, ptr nonnull %2) #20
  %3 = load i8, ptr %0, align 1, !tbaa !3
  %.not25 = icmp eq i8 %3, 0
  br i1 %.not25, label %._crit_edge, label %.lr.ph

.lr.ph:                                           ; preds = %1, %17
  %indvars.iv = phi i64 [ %indvars.iv.next, %17 ], [ 0, %1 ]
  %.027 = phi i32 [ %.1, %17 ], [ 0, %1 ]
  %4 = getelementptr inbounds nuw i8, ptr %0, i64 %indvars.iv
  %5 = getelementptr inbounds nuw [16 x i32], ptr @Dsc_ComputeMatches.pMatches, i64 0, i64 %indvars.iv
  store i32 0, ptr %5, align 4, !tbaa !9
  %6 = load i8, ptr %4, align 1, !tbaa !3
  switch i8 %6, label %17 [
    i8 40, label %7
    i8 91, label %7
    i8 60, label %7
    i8 123, label %7
    i8 41, label %9
    i8 93, label %9
    i8 62, label %9
    i8 125, label %9
  ]

7:                                                ; preds = %.lr.ph, %.lr.ph, %.lr.ph, %.lr.ph
  %8 = add nsw i32 %.027, 1
  br label %.sink.split

9:                                                ; preds = %.lr.ph, %.lr.ph, %.lr.ph, %.lr.ph
  %10 = add nsw i32 %.027, -1
  %11 = sext i32 %10 to i64
  %12 = getelementptr inbounds [16 x i32], ptr %2, i64 0, i64 %11
  %13 = load i32, ptr %12, align 4, !tbaa !9
  br label %.sink.split

.sink.split:                                      ; preds = %9, %7
  %.027.sink = phi i32 [ %.027, %7 ], [ %13, %9 ]
  %.sink = phi ptr [ %2, %7 ], [ @Dsc_ComputeMatches.pMatches, %9 ]
  %.1.ph = phi i32 [ %8, %7 ], [ %10, %9 ]
  %14 = sext i32 %.027.sink to i64
  %15 = getelementptr inbounds [16 x i32], ptr %.sink, i64 0, i64 %14
  %16 = trunc nuw nsw i64 %indvars.iv to i32
  store i32 %16, ptr %15, align 4, !tbaa !9
  br label %17

17:                                               ; preds = %.sink.split, %.lr.ph
  %.1 = phi i32 [ %.027, %.lr.ph ], [ %.1.ph, %.sink.split ]
  %indvars.iv.next = add nuw nsw i64 %indvars.iv, 1
  %18 = getelementptr inbounds nuw i8, ptr %0, i64 %indvars.iv.next
  %19 = load i8, ptr %18, align 1, !tbaa !3
  %.not = icmp eq i8 %19, 0
  br i1 %.not, label %._crit_edge, label %.lr.ph, !llvm.loop !54

._crit_edge:                                      ; preds = %17, %1
  call void @llvm.lifetime.end.p0(i64 64, ptr nonnull %2) #20
  ret ptr @Dsc_ComputeMatches.pMatches
}